
elf/I-JALR-01.elf:     file format elf32-littleriscv

SYMBOL TABLE:
00010074 l    d  .text	00000000 .text
00011500 l    d  .data	00000000 .data
00011800 l    d  .tohost	00000000 .tohost
00000000 l    d  .riscv.attributes	00000000 .riscv.attributes
00000000 l    df *ABS*	00000000 C:\Users\Aidan\AppData\Local\Temp\ccKrUeTh.o
00011500 l       .data	00000000 test_1_res
00011514 l       .data	00000000 test_2_res
00011528 l       .data	00000000 test_3_res
0001153c l       .data	00000000 test_4_res
00011550 l       .data	00000000 test_5_res
00011564 l       .data	00000000 test_6_res
00011578 l       .data	00000000 test_7_res
000104f0 l       .text	00000000 end_testcode
00011d00 g       *ABS*	00000000 __global_pointer$
00011590 g       .data	00000000 end_signature
00011908 g       .tohost	00000000 __SDATA_BEGIN__
00011600 g       .data	00000000 begin_regstate
00010074 g       .text	00000000 userstart
00011500 g       .data	00000000 begin_signature
00011908 g       .tohost	00000000 __BSS_END__
00011700 g       .data	00000000 end_regstate
00011908 g       .tohost	00000000 __bss_start
00011500 g       .data	00000000 __DATA_BEGIN__
00011908 g       .tohost	00000000 _edata
00011908 g       .tohost	00000000 _end
00011900 g       .tohost	00000000 fromhost
00011800 g       .tohost	00000000 tohost



Disassembly of section .text:

00010074 <userstart>:
   10074:	00002537          	lui	a0,0x2
   10078:	80050513          	addi	a0,a0,-2048 # 1800 <userstart-0xe874>
   1007c:	30052073          	csrs	mstatus,a0
   10080:	00001297          	auipc	t0,0x1
   10084:	48028293          	addi	t0,t0,1152 # 11500 <__DATA_BEGIN__>
   10088:	0000dfb7          	lui	t6,0xd
   1008c:	cccf8f93          	addi	t6,t6,-820 # cccc <userstart-0x33a8>
   10090:	00000817          	auipc	a6,0x0
   10094:	01480813          	addi	a6,a6,20 # 100a4 <userstart+0x30>
   10098:	00080067          	jr	a6
   1009c:	00012fb7          	lui	t6,0x12
   100a0:	3abf8f93          	addi	t6,t6,939 # 123ab <__global_pointer$+0x6ab>
   100a4:	01f2a023          	sw	t6,0(t0)
   100a8:	0000df37          	lui	t5,0xd
   100ac:	cccf0f13          	addi	t5,t5,-820 # cccc <userstart-0x33a8>
   100b0:	00000797          	auipc	a5,0x0
   100b4:	01378793          	addi	a5,a5,19 # 100c3 <userstart+0x4f>
   100b8:	001780e7          	jalr	1(a5)
   100bc:	00012f37          	lui	t5,0x12
   100c0:	3abf0f13          	addi	t5,t5,939 # 123ab <__global_pointer$+0x6ab>
   100c4:	01e2a223          	sw	t5,4(t0)
   100c8:	0080006f          	j	100d0 <userstart+0x5c>
   100cc:	0200006f          	j	100ec <userstart+0x78>
   100d0:	0000deb7          	lui	t4,0xd
   100d4:	ccce8e93          	addi	t4,t4,-820 # cccc <userstart-0x33a8>
   100d8:	00000717          	auipc	a4,0x0
   100dc:	ff370713          	addi	a4,a4,-13 # 100cb <userstart+0x57>
   100e0:	00170167          	jalr	sp,1(a4)
   100e4:	00012eb7          	lui	t4,0x12
   100e8:	3abe8e93          	addi	t4,t4,939 # 123ab <__global_pointer$+0x6ab>
   100ec:	01d2a423          	sw	t4,8(t0)
   100f0:	0000de37          	lui	t3,0xd
   100f4:	ccce0e13          	addi	t3,t3,-820 # cccc <userstart-0x33a8>
   100f8:	00000697          	auipc	a3,0x0
   100fc:	01068693          	addi	a3,a3,16 # 10108 <userstart+0x94>
   10100:	004681e7          	jalr	gp,4(a3)
   10104:	00012e37          	lui	t3,0x12
   10108:	3abe0e13          	addi	t3,t3,939 # 123ab <__global_pointer$+0x6ab>
   1010c:	01c2a623          	sw	t3,12(t0)
   10110:	0000ddb7          	lui	s11,0xd
   10114:	cccd8d93          	addi	s11,s11,-820 # cccc <userstart-0x33a8>
   10118:	00000617          	auipc	a2,0x0
   1011c:	01260613          	addi	a2,a2,18 # 1012a <userstart+0xb6>
   10120:	00260267          	jalr	tp,2(a2)
   10124:	00012db7          	lui	s11,0x12
   10128:	3abd8d93          	addi	s11,s11,939 # 123ab <__global_pointer$+0x6ab>
   1012c:	01b2a823          	sw	s11,16(t0)
   10130:	00001097          	auipc	ra,0x1
   10134:	3e408093          	addi	ra,ra,996 # 11514 <test_2_res>
   10138:	0000dd37          	lui	s10,0xd
   1013c:	cccd0d13          	addi	s10,s10,-820 # cccc <userstart-0x33a8>
   10140:	00000597          	auipc	a1,0x0
   10144:	01058593          	addi	a1,a1,16 # 10150 <userstart+0xdc>
   10148:	004582e7          	jalr	t0,4(a1)
   1014c:	00012d37          	lui	s10,0x12
   10150:	3abd0d13          	addi	s10,s10,939 # 123ab <__global_pointer$+0x6ab>
   10154:	01a0a023          	sw	s10,0(ra)
   10158:	0000dcb7          	lui	s9,0xd
   1015c:	cccc8c93          	addi	s9,s9,-820 # cccc <userstart-0x33a8>
   10160:	00000517          	auipc	a0,0x0
   10164:	01150513          	addi	a0,a0,17 # 10171 <userstart+0xfd>
   10168:	00350367          	jalr	t1,3(a0)
   1016c:	00012cb7          	lui	s9,0x12
   10170:	3abc8c93          	addi	s9,s9,939 # 123ab <__global_pointer$+0x6ab>
   10174:	0190a223          	sw	s9,4(ra)
   10178:	0080006f          	j	10180 <userstart+0x10c>
   1017c:	0200006f          	j	1019c <userstart+0x128>
   10180:	0000dc37          	lui	s8,0xd
   10184:	cccc0c13          	addi	s8,s8,-820 # cccc <userstart-0x33a8>
   10188:	00000497          	auipc	s1,0x0
   1018c:	ff248493          	addi	s1,s1,-14 # 1017a <userstart+0x106>
   10190:	002483e7          	jalr	t2,2(s1)
   10194:	00012c37          	lui	s8,0x12
   10198:	3abc0c13          	addi	s8,s8,939 # 123ab <__global_pointer$+0x6ab>
   1019c:	0180a423          	sw	s8,8(ra)
   101a0:	0000dbb7          	lui	s7,0xd
   101a4:	cccb8b93          	addi	s7,s7,-820 # cccc <userstart-0x33a8>
   101a8:	00000417          	auipc	s0,0x0
   101ac:	01440413          	addi	s0,s0,20 # 101bc <userstart+0x148>
   101b0:	00040467          	jalr	s0,s0
   101b4:	00012bb7          	lui	s7,0x12
   101b8:	3abb8b93          	addi	s7,s7,939 # 123ab <__global_pointer$+0x6ab>
   101bc:	0170a623          	sw	s7,12(ra)
   101c0:	0000db37          	lui	s6,0xd
   101c4:	cccb0b13          	addi	s6,s6,-820 # cccc <userstart-0x33a8>
   101c8:	00000397          	auipc	t2,0x0
   101cc:	01338393          	addi	t2,t2,19 # 101db <userstart+0x167>
   101d0:	001384e7          	jalr	s1,1(t2)
   101d4:	00012b37          	lui	s6,0x12
   101d8:	3abb0b13          	addi	s6,s6,939 # 123ab <__global_pointer$+0x6ab>
   101dc:	0160a823          	sw	s6,16(ra)
   101e0:	00001097          	auipc	ra,0x1
   101e4:	34808093          	addi	ra,ra,840 # 11528 <test_3_res>
   101e8:	0000dab7          	lui	s5,0xd
   101ec:	ccca8a93          	addi	s5,s5,-820 # cccc <userstart-0x33a8>
   101f0:	00000317          	auipc	t1,0x0
   101f4:	01330313          	addi	t1,t1,19 # 10203 <userstart+0x18f>
   101f8:	00130567          	jalr	a0,1(t1)
   101fc:	00012ab7          	lui	s5,0x12
   10200:	3aba8a93          	addi	s5,s5,939 # 123ab <__global_pointer$+0x6ab>
   10204:	0150a023          	sw	s5,0(ra)
   10208:	0000da37          	lui	s4,0xd
   1020c:	ccca0a13          	addi	s4,s4,-820 # cccc <userstart-0x33a8>
   10210:	00000297          	auipc	t0,0x0
   10214:	01028293          	addi	t0,t0,16 # 10220 <userstart+0x1ac>
   10218:	004285e7          	jalr	a1,4(t0)
   1021c:	00012a37          	lui	s4,0x12
   10220:	3aba0a13          	addi	s4,s4,939 # 123ab <__global_pointer$+0x6ab>
   10224:	0140a223          	sw	s4,4(ra)
   10228:	0080006f          	j	10230 <userstart+0x1bc>
   1022c:	0200006f          	j	1024c <userstart+0x1d8>
   10230:	0000d9b7          	lui	s3,0xd
   10234:	ccc98993          	addi	s3,s3,-820 # cccc <userstart-0x33a8>
   10238:	00000217          	auipc	tp,0x0
   1023c:	ff220213          	addi	tp,tp,-14 # 1022a <userstart+0x1b6>
   10240:	00220667          	jalr	a2,2(tp) # 0 <userstart-0x10074>
   10244:	000129b7          	lui	s3,0x12
   10248:	3ab98993          	addi	s3,s3,939 # 123ab <__global_pointer$+0x6ab>
   1024c:	0130a423          	sw	s3,8(ra)
   10250:	0000d937          	lui	s2,0xd
   10254:	ccc90913          	addi	s2,s2,-820 # cccc <userstart-0x33a8>
   10258:	00000197          	auipc	gp,0x0
   1025c:	01018193          	addi	gp,gp,16 # 10268 <userstart+0x1f4>
   10260:	004186e7          	jalr	a3,4(gp) # 11d00 <__global_pointer$>
   10264:	00012937          	lui	s2,0x12
   10268:	3ab90913          	addi	s2,s2,939 # 123ab <__global_pointer$+0x6ab>
   1026c:	0120a623          	sw	s2,12(ra)
   10270:	0000d8b7          	lui	a7,0xd
   10274:	ccc88893          	addi	a7,a7,-820 # cccc <userstart-0x33a8>
   10278:	00000117          	auipc	sp,0x0
   1027c:	01110113          	addi	sp,sp,17 # 10289 <userstart+0x215>
   10280:	00310767          	jalr	a4,3(sp)
   10284:	000128b7          	lui	a7,0x12
   10288:	3ab88893          	addi	a7,a7,939 # 123ab <__global_pointer$+0x6ab>
   1028c:	0110a823          	sw	a7,16(ra)
   10290:	00001117          	auipc	sp,0x1
   10294:	2ac10113          	addi	sp,sp,684 # 1153c <test_4_res>
   10298:	0000d837          	lui	a6,0xd
   1029c:	ccc80813          	addi	a6,a6,-820 # cccc <userstart-0x33a8>
   102a0:	00000097          	auipc	ra,0x0
   102a4:	01208093          	addi	ra,ra,18 # 102b2 <userstart+0x23e>
   102a8:	002087e7          	jalr	a5,2(ra)
   102ac:	00012837          	lui	a6,0x12
   102b0:	3ab80813          	addi	a6,a6,939 # 123ab <__global_pointer$+0x6ab>
   102b4:	01012023          	sw	a6,0(sp)
   102b8:	0000d7b7          	lui	a5,0xd
   102bc:	ccc78793          	addi	a5,a5,-820 # cccc <userstart-0x33a8>
   102c0:	00000097          	auipc	ra,0x0
   102c4:	01408093          	addi	ra,ra,20 # 102d4 <userstart+0x260>
   102c8:	00008867          	jalr	a6,ra
   102cc:	000127b7          	lui	a5,0x12
   102d0:	3ab78793          	addi	a5,a5,939 # 123ab <__global_pointer$+0x6ab>
   102d4:	00f12223          	sw	a5,4(sp)
   102d8:	0080006f          	j	102e0 <userstart+0x26c>
   102dc:	0200006f          	j	102fc <userstart+0x288>
   102e0:	0000d737          	lui	a4,0xd
   102e4:	ccc70713          	addi	a4,a4,-820 # cccc <userstart-0x33a8>
   102e8:	00000f97          	auipc	t6,0x0
   102ec:	ff3f8f93          	addi	t6,t6,-13 # 102db <userstart+0x267>
   102f0:	001f88e7          	jalr	a7,1(t6)
   102f4:	00012737          	lui	a4,0x12
   102f8:	3ab70713          	addi	a4,a4,939 # 123ab <__global_pointer$+0x6ab>
   102fc:	00e12423          	sw	a4,8(sp)
   10300:	0000d6b7          	lui	a3,0xd
   10304:	ccc68693          	addi	a3,a3,-820 # cccc <userstart-0x33a8>
   10308:	00000f17          	auipc	t5,0x0
   1030c:	013f0f13          	addi	t5,t5,19 # 1031b <userstart+0x2a7>
   10310:	001f0967          	jalr	s2,1(t5)
   10314:	000126b7          	lui	a3,0x12
   10318:	3ab68693          	addi	a3,a3,939 # 123ab <__global_pointer$+0x6ab>
   1031c:	00d12623          	sw	a3,12(sp)
   10320:	0000d637          	lui	a2,0xd
   10324:	ccc60613          	addi	a2,a2,-820 # cccc <userstart-0x33a8>
   10328:	00000e97          	auipc	t4,0x0
   1032c:	010e8e93          	addi	t4,t4,16 # 10338 <userstart+0x2c4>
   10330:	004e89e7          	jalr	s3,4(t4)
   10334:	00012637          	lui	a2,0x12
   10338:	3ab60613          	addi	a2,a2,939 # 123ab <__global_pointer$+0x6ab>
   1033c:	00c12823          	sw	a2,16(sp)
   10340:	00001097          	auipc	ra,0x1
   10344:	21008093          	addi	ra,ra,528 # 11550 <test_5_res>
   10348:	0000d5b7          	lui	a1,0xd
   1034c:	ccc58593          	addi	a1,a1,-820 # cccc <userstart-0x33a8>
   10350:	00000e17          	auipc	t3,0x0
   10354:	012e0e13          	addi	t3,t3,18 # 10362 <userstart+0x2ee>
   10358:	002e0a67          	jalr	s4,2(t3)
   1035c:	000125b7          	lui	a1,0x12
   10360:	3ab58593          	addi	a1,a1,939 # 123ab <__global_pointer$+0x6ab>
   10364:	00b0a023          	sw	a1,0(ra)
   10368:	0000d537          	lui	a0,0xd
   1036c:	ccc50513          	addi	a0,a0,-820 # cccc <userstart-0x33a8>
   10370:	00000d97          	auipc	s11,0x0
   10374:	010d8d93          	addi	s11,s11,16 # 10380 <userstart+0x30c>
   10378:	004d8ae7          	jalr	s5,4(s11)
   1037c:	00012537          	lui	a0,0x12
   10380:	3ab50513          	addi	a0,a0,939 # 123ab <__global_pointer$+0x6ab>
   10384:	00a0a223          	sw	a0,4(ra)
   10388:	0080006f          	j	10390 <userstart+0x31c>
   1038c:	0200006f          	j	103ac <userstart+0x338>
   10390:	0000d4b7          	lui	s1,0xd
   10394:	ccc48493          	addi	s1,s1,-820 # cccc <userstart-0x33a8>
   10398:	00000d17          	auipc	s10,0x0
   1039c:	ff1d0d13          	addi	s10,s10,-15 # 10389 <userstart+0x315>
   103a0:	003d0b67          	jalr	s6,3(s10)
   103a4:	000124b7          	lui	s1,0x12
   103a8:	3ab48493          	addi	s1,s1,939 # 123ab <__global_pointer$+0x6ab>
   103ac:	0090a423          	sw	s1,8(ra)
   103b0:	0000d437          	lui	s0,0xd
   103b4:	ccc40413          	addi	s0,s0,-820 # cccc <userstart-0x33a8>
   103b8:	00000c97          	auipc	s9,0x0
   103bc:	012c8c93          	addi	s9,s9,18 # 103ca <userstart+0x356>
   103c0:	002c8be7          	jalr	s7,2(s9)
   103c4:	00012437          	lui	s0,0x12
   103c8:	3ab40413          	addi	s0,s0,939 # 123ab <__global_pointer$+0x6ab>
   103cc:	0080a623          	sw	s0,12(ra)
   103d0:	0000d3b7          	lui	t2,0xd
   103d4:	ccc38393          	addi	t2,t2,-820 # cccc <userstart-0x33a8>
   103d8:	00000c17          	auipc	s8,0x0
   103dc:	014c0c13          	addi	s8,s8,20 # 103ec <userstart+0x378>
   103e0:	000c0c67          	jalr	s8,s8
   103e4:	000123b7          	lui	t2,0x12
   103e8:	3ab38393          	addi	t2,t2,939 # 123ab <__global_pointer$+0x6ab>
   103ec:	0070a823          	sw	t2,16(ra)
   103f0:	00001097          	auipc	ra,0x1
   103f4:	17408093          	addi	ra,ra,372 # 11564 <test_6_res>
   103f8:	0000d337          	lui	t1,0xd
   103fc:	ccc30313          	addi	t1,t1,-820 # cccc <userstart-0x33a8>
   10400:	00000b97          	auipc	s7,0x0
   10404:	013b8b93          	addi	s7,s7,19 # 10413 <userstart+0x39f>
   10408:	001b8ce7          	jalr	s9,1(s7)
   1040c:	00012337          	lui	t1,0x12
   10410:	3ab30313          	addi	t1,t1,939 # 123ab <__global_pointer$+0x6ab>
   10414:	0060a023          	sw	t1,0(ra)
   10418:	0000d2b7          	lui	t0,0xd
   1041c:	ccc28293          	addi	t0,t0,-820 # cccc <userstart-0x33a8>
   10420:	00000b17          	auipc	s6,0x0
   10424:	013b0b13          	addi	s6,s6,19 # 10433 <userstart+0x3bf>
   10428:	001b0d67          	jalr	s10,1(s6)
   1042c:	000122b7          	lui	t0,0x12
   10430:	3ab28293          	addi	t0,t0,939 # 123ab <__global_pointer$+0x6ab>
   10434:	0050a223          	sw	t0,4(ra)
   10438:	0080006f          	j	10440 <userstart+0x3cc>
   1043c:	0200006f          	j	1045c <userstart+0x3e8>
   10440:	0000d237          	lui	tp,0xd
   10444:	ccc20213          	addi	tp,tp,-820 # cccc <userstart-0x33a8>
   10448:	00000a97          	auipc	s5,0x0
   1044c:	ff0a8a93          	addi	s5,s5,-16 # 10438 <userstart+0x3c4>
   10450:	004a8de7          	jalr	s11,4(s5)
   10454:	00012237          	lui	tp,0x12
   10458:	3ab20213          	addi	tp,tp,939 # 123ab <__global_pointer$+0x6ab>
   1045c:	0040a423          	sw	tp,8(ra)
   10460:	0000d1b7          	lui	gp,0xd
   10464:	ccc18193          	addi	gp,gp,-820 # cccc <userstart-0x33a8>
   10468:	00000a17          	auipc	s4,0x0
   1046c:	012a0a13          	addi	s4,s4,18 # 1047a <userstart+0x406>
   10470:	002a0e67          	jalr	t3,2(s4)
   10474:	000121b7          	lui	gp,0x12
   10478:	3ab18193          	addi	gp,gp,939 # 123ab <__global_pointer$+0x6ab>
   1047c:	0030a623          	sw	gp,12(ra)
   10480:	0000d137          	lui	sp,0xd
   10484:	ccc10113          	addi	sp,sp,-820 # cccc <userstart-0x33a8>
   10488:	00000997          	auipc	s3,0x0
   1048c:	01098993          	addi	s3,s3,16 # 10498 <userstart+0x424>
   10490:	00498ee7          	jalr	t4,4(s3)
   10494:	00012137          	lui	sp,0x12
   10498:	3ab10113          	addi	sp,sp,939 # 123ab <__global_pointer$+0x6ab>
   1049c:	0020a823          	sw	sp,16(ra)
   104a0:	00001117          	auipc	sp,0x1
   104a4:	0d810113          	addi	sp,sp,216 # 11578 <test_7_res>
   104a8:	0000d0b7          	lui	ra,0xd
   104ac:	ccc08093          	addi	ra,ra,-820 # cccc <userstart-0x33a8>
   104b0:	00000917          	auipc	s2,0x0
   104b4:	01190913          	addi	s2,s2,17 # 104c1 <userstart+0x44d>
   104b8:	00390f67          	jalr	t5,3(s2)
   104bc:	000120b7          	lui	ra,0x12
   104c0:	3ab08093          	addi	ra,ra,939 # 123ab <__global_pointer$+0x6ab>
   104c4:	00112023          	sw	ra,0(sp)
   104c8:	0000d037          	lui	zero,0xd
   104cc:	ccc00013          	li	zero,-820
   104d0:	00000897          	auipc	a7,0x0
   104d4:	01288893          	addi	a7,a7,18 # 104e2 <userstart+0x46e>
   104d8:	00288fe7          	jalr	t6,2(a7)
   104dc:	00012037          	lui	zero,0x12
   104e0:	3ab00013          	li	zero,939
   104e4:	00012223          	sw	zero,4(sp)
   104e8:	00100513          	li	a0,1
   104ec:	00000073          	ecall

000104f0 <end_testcode>:
   104f0:	00000073          	ecall
